# SymbolsHelper-Confirmed: 15 amd64 arm64 ppc64el riscv64
libgcobol.so.1 libgcobol1 #MINVER#
 _Z11__gg__abortPKc@Base 15
 _Z12__gg__mabortv@Base 15
 _Z14gcobol_fileopsv@Base 15
 _Z18__gg__file_stashedv@Base 15
 (optional=templinst)_Z23enabled_exception_matchISt23_Rb_tree_const_iteratorI23cbl_enabled_exception_tEET_S3_S3_9ec_type_tm@Base 15
 _Z7flipperv@Base 15
 _ZGVZNK17cbl_declarative_t10match_fileEmE4pend@Base 15
 _ZN11ec_status_t16copy_environmentEv@Base 15
 _ZN11ec_status_t6updateEv@Base 15
 _ZN11ec_status_tD1Ev@Base 15
 _ZN11ec_status_tD2Ev@Base 15
 _ZN24cbl_enabled_exceptions_t6decodeERKSt6vectorImSaImEE@Base 15
 _ZN24cbl_enabled_exceptions_tD1Ev@Base 15
 _ZN24cbl_enabled_exceptions_tD2Ev@Base 15
 _ZNK11ec_status_t17reset_environmentEv@Base 15
 _ZNK11ec_status_t8is_fatalEv@Base 15
 _ZNK23cbl_enabled_exception_t4dumpEi@Base 15
 _ZNK24cbl_enabled_exceptions_t4dumpEPKc@Base 15
 _ZNK24cbl_enabled_exceptions_t5matchE9ec_type_tm@Base 15
 (optional=templinst)_ZNKSt10_HashtableItSt4pairIKthESaIS2_ENSt8__detail10_Select1stESt8equal_toItESt4hashItENS4_18_Mod_range_hashingENS4_20_Default_ranged_hashENS4_20_Prime_rehash_policyENS4_17_Hashtable_traitsILb0ELb0ELb1EEEE4findERS1_@Base 15
 (optional=templinst)_ZNSt10_HashtableINSt7__cxx1112basic_stringIcSt11char_traitsIcESaIcEEESt4pairIKS5_PvESaIS9_ENSt8__detail10_Select1stESt8equal_toIS5_ESt4hashIS5_ENSB_18_Mod_range_hashingENSB_20_Default_ranged_hashENSB_20_Prime_rehash_policyENSB_17_Hashtable_traitsILb1ELb0ELb1EEEE4findERS7_@Base 15
 (optional=templinst)_ZNSt10_HashtableIiSt4pairIKiPPPFvvEESaIS6_ENSt8__detail10_Select1stESt8equal_toIiESt4hashIiENS8_18_Mod_range_hashingENS8_20_Default_ranged_hashENS8_20_Prime_rehash_policyENS8_17_Hashtable_traitsILb0ELb0ELb1EEEE21_M_insert_unique_nodeEmmPNS8_10_Hash_nodeIS6_Lb0EEEm@Base 15
 (optional=templinst)_ZNSt10_HashtableIiSt4pairIKiPPPFvvEESaIS6_ENSt8__detail10_Select1stESt8equal_toIiESt4hashIiENS8_18_Mod_range_hashingENS8_20_Default_ranged_hashENS8_20_Prime_rehash_policyENS8_17_Hashtable_traitsILb0ELb0ELb1EEEE4findERS1_@Base 15
 (optional=templinst)_ZNSt10_HashtableIiSt4pairIKiPPPcESaIS5_ENSt8__detail10_Select1stESt8equal_toIiESt4hashIiENS7_18_Mod_range_hashingENS7_20_Default_ranged_hashENS7_20_Prime_rehash_policyENS7_17_Hashtable_traitsILb0ELb0ELb1EEEE21_M_insert_unique_nodeEmmPNS7_10_Hash_nodeIS5_Lb0EEEm@Base 15
 (optional=templinst)_ZNSt10_HashtableImSt4pairIKm14alphabet_stateESaIS3_ENSt8__detail10_Select1stESt8equal_toImESt4hashImENS5_18_Mod_range_hashingENS5_20_Default_ranged_hashENS5_20_Prime_rehash_policyENS5_17_Hashtable_traitsILb0ELb0ELb1EEEE4findERS1_@Base 15
 (optional=templinst)_ZNSt10_HashtableImSt4pairIKmmESaIS2_ENSt8__detail10_Select1stESt8equal_toImESt4hashImENS4_18_Mod_range_hashingENS4_20_Default_ranged_hashENS4_20_Prime_rehash_policyENS4_17_Hashtable_traitsILb0ELb0ELb1EEEE4findERS1_@Base 15
 (optional=templinst)_ZNSt10_HashtableItSt4pairIKthESaIS2_ENSt8__detail10_Select1stESt8equal_toItESt4hashItENS4_18_Mod_range_hashingENS4_20_Default_ranged_hashENS4_20_Prime_rehash_policyENS4_17_Hashtable_traitsILb0ELb0ELb1EEEED1Ev@Base 15
 (optional=templinst)_ZNSt10_HashtableItSt4pairIKthESaIS2_ENSt8__detail10_Select1stESt8equal_toItESt4hashItENS4_18_Mod_range_hashingENS4_20_Default_ranged_hashENS4_20_Prime_rehash_policyENS4_17_Hashtable_traitsILb0ELb0ELb1EEEED2Ev@Base 15
 (optional=templinst)_ZNSt12_Vector_baseI11id_2_resultSaIS0_EED1Ev@Base 15
 (optional=templinst)_ZNSt12_Vector_baseI11id_2_resultSaIS0_EED2Ev@Base 15
 (optional=templinst)_ZNSt12_Vector_baseISt17_Rb_tree_iteratorISt4pairIKSt6vectorIhSaIhEElEESaIS7_EED1Ev@Base 15
 (optional=templinst)_ZNSt12_Vector_baseISt17_Rb_tree_iteratorISt4pairIKSt6vectorIhSaIhEElEESaIS7_EED2Ev@Base 15
 (optional=templinst)_ZNSt12_Vector_baseIhSaIhEED1Ev@Base 15
 (optional=templinst)_ZNSt12_Vector_baseIhSaIhEED2Ev@Base 15
 (optional=templinst)_ZNSt12_Vector_baseImSaImEED1Ev@Base 15
 (optional=templinst)_ZNSt12_Vector_baseImSaImEED2Ev@Base 15
 (optional=templinst)_ZNSt13unordered_mapINSt7__cxx1112basic_stringIcSt11char_traitsIcESaIcEEEPvSt4hashIS5_ESt8equal_toIS5_ESaISt4pairIKS5_S6_EEED1Ev@Base 15
 (optional=templinst)_ZNSt13unordered_mapINSt7__cxx1112basic_stringIcSt11char_traitsIcESaIcEEEPvSt4hashIS5_ESt8equal_toIS5_ESaISt4pairIKS5_S6_EEED2Ev@Base 15
 (optional=templinst)_ZNSt13unordered_mapIiPPPFvvESt4hashIiESt8equal_toIiESaISt4pairIKiS3_EEED1Ev@Base 15
 (optional=templinst)_ZNSt13unordered_mapIiPPPFvvESt4hashIiESt8equal_toIiESaISt4pairIKiS3_EEED2Ev@Base 15
 (optional=templinst)_ZNSt13unordered_mapIiPPPcSt4hashIiESt8equal_toIiESaISt4pairIKiS2_EEED1Ev@Base 15
 (optional=templinst)_ZNSt13unordered_mapIiPPPcSt4hashIiESt8equal_toIiESaISt4pairIKiS2_EEED2Ev@Base 15
 (optional=templinst)_ZNSt13unordered_mapIm14alphabet_stateSt4hashImESt8equal_toImESaISt4pairIKmS0_EEED1Ev@Base 15
 (optional=templinst)_ZNSt13unordered_mapIm14alphabet_stateSt4hashImESt8equal_toImESaISt4pairIKmS0_EEED2Ev@Base 15
 (optional=templinst)_ZNSt13unordered_mapImSt6vectorImSaImEESt4hashImESt8equal_toImESaISt4pairIKmS2_EEED1Ev@Base 15
 (optional=templinst)_ZNSt13unordered_mapImSt6vectorImSaImEESt4hashImESt8equal_toImESaISt4pairIKmS2_EEED2Ev@Base 15
 (optional=templinst)_ZNSt13unordered_mapImmSt4hashImESt8equal_toImESaISt4pairIKmmEEED1Ev@Base 15
 (optional=templinst)_ZNSt13unordered_mapImmSt4hashImESt8equal_toImESaISt4pairIKmmEEED2Ev@Base 15
 (optional=templinst)_ZNSt13unordered_mapIthSt4hashItESt8equal_toItESaISt4pairIKthEEED1Ev@Base 15
 (optional=templinst)_ZNSt13unordered_mapIthSt4hashItESt8equal_toItESaISt4pairIKthEEED2Ev@Base 15
 (optional=templinst)_ZNSt3setImSt4lessImESaImEED1Ev@Base 15
 (optional=templinst)_ZNSt3setImSt4lessImESaImEED2Ev@Base 15
 (optional=templinst)_ZNSt5dequeI11ec_status_tSaIS0_EE16_M_push_back_auxIJRKS0_EEEvDpOT_@Base 15
 (optional=templinst)_ZNSt5dequeI11ec_status_tSaIS0_EE17_M_reallocate_mapEmb@Base 15
 (optional=templinst)_ZNSt5stackI11ec_status_tSt5dequeIS0_SaIS0_EEED1Ev@Base 15
 (optional=templinst)_ZNSt5stackI11ec_status_tSt5dequeIS0_SaIS0_EEED2Ev@Base 15
 (optional=templinst)_ZNSt6vectorI11file_hole_tSaIS0_EE17_M_realloc_appendIJRKS0_EEEvDpOT_@Base 15
 (optional=templinst)_ZNSt6vectorI12file_index_tSaIS0_EE17_M_realloc_appendIJRKS0_EEEvDpOT_@Base 15
 (optional=templinst)_ZNSt6vectorI13program_stateSaIS0_EE17_M_realloc_appendIJRKS0_EEEvDpOT_@Base 15
 (optional=templinst)_ZNSt6vectorI13program_stateSaIS0_EED1Ev@Base 15
 (optional=templinst)_ZNSt6vectorI13program_stateSaIS0_EED2Ev@Base 15
 (optional=templinst)_ZNSt6vectorI17cbl_declarative_tSaIS0_EE17_M_realloc_appendIJRKS0_EEEvDpOT_@Base 15
 (optional=templinst)_ZNSt6vectorI17cbl_declarative_tSaIS0_EED1Ev@Base 15
 (optional=templinst)_ZNSt6vectorI17cbl_declarative_tSaIS0_EED2Ev@Base 15
 (optional=templinst)_ZNSt6vectorI7LV_DATASaIS0_EED1Ev@Base 15
 (optional=templinst)_ZNSt6vectorI7LV_DATASaIS0_EED2Ev@Base 15
 (optional=templinst)_ZNSt6vectorI9comparandSaIS0_EE17_M_realloc_appendIJRKS0_EEEvDpOT_@Base 15
 (optional=templinst)_ZNSt6vectorI9comparandSaIS0_EED1Ev@Base 15
 (optional=templinst)_ZNSt6vectorI9comparandSaIS0_EED2Ev@Base 15
 (optional=templinst)_ZNSt6vectorI9ec_type_tSaIS0_EED1Ev@Base 15
 (optional=templinst)_ZNSt6vectorI9ec_type_tSaIS0_EED2Ev@Base 15
 (optional=templinst)_ZNSt6vectorINSt7__cxx1112basic_stringIcSt11char_traitsIcESaIcEEESaIS5_EE17_M_realloc_appendIJS5_EEEvDpOT_@Base 15
 (optional=templinst)_ZNSt6vectorINSt7__cxx1112basic_stringIcSt11char_traitsIcESaIcEEESaIS5_EED1Ev@Base 15
 (optional=templinst)_ZNSt6vectorINSt7__cxx1112basic_stringIcSt11char_traitsIcESaIcEEESaIS5_EED2Ev@Base 15
 (optional=templinst)_ZNSt6vectorIPvSaIS0_EE17_M_default_appendEm@Base 15
 (optional=templinst)_ZNSt6vectorIPvSaIS0_EE17_M_realloc_appendIJRKS0_EEEvDpOT_@Base 15
 (optional=templinst)_ZNSt6vectorIPvSaIS0_EED1Ev@Base 15
 (optional=templinst)_ZNSt6vectorIPvSaIS0_EED2Ev@Base 15
 (optional=templinst)_ZNSt6vectorISt17_Rb_tree_iteratorISt4pairIKS_IhSaIhEElEESaIS6_EE17_M_realloc_appendIJRKS6_EEEvDpOT_@Base 15
 (optional=templinst)_ZNSt6vectorIhSaIhEE17_M_realloc_appendIJRKhEEEvDpOT_@Base 15
 (optional=templinst)_ZNSt6vectorIiSaIiEE17_M_realloc_appendIJRKiEEEvDpOT_@Base 15
 (optional=templinst)_ZNSt6vectorImSaImEE17_M_realloc_appendIJRKmEEEvDpOT_@Base 15
 (optional=templinst)_ZNSt6vectorImSaImEED1Ev@Base 15
 (optional=templinst)_ZNSt6vectorImSaImEED2Ev@Base 15
 (optional=templinst)_ZNSt7__cxx1112basic_stringIcSt11char_traitsIcESaIcEE12_M_constructILb1EEEvPKcm@Base 15
 (optional=templinst)_ZNSt8_Rb_treeISt6vectorIhSaIhEESt4pairIKS2_lESt10_Select1stIS5_ESt4lessIS2_ESaIS5_EE11equal_rangeERS4_@Base 15
 (optional=templinst)_ZNSt8_Rb_treeImmSt9_IdentityImESt4lessImESaImEE16_M_insert_uniqueIRKmEESt4pairISt17_Rb_tree_iteratorImEbEOT_@Base 15
 (optional=templinst)_ZNSt8__detail9_Map_baseINSt7__cxx1112basic_stringIcSt11char_traitsIcESaIcEEESt4pairIKS6_PvESaISA_ENS_10_Select1stESt8equal_toIS6_ESt4hashIS6_ENS_18_Mod_range_hashingENS_20_Default_ranged_hashENS_20_Prime_rehash_policyENS_17_Hashtable_traitsILb1ELb0ELb1EEELb1EEixEOS6_@Base 15
 (optional=templinst)_ZNSt8__detail9_Map_baseImSt4pairIKm14alphabet_stateESaIS4_ENS_10_Select1stESt8equal_toImESt4hashImENS_18_Mod_range_hashingENS_20_Default_ranged_hashENS_20_Prime_rehash_policyENS_17_Hashtable_traitsILb0ELb0ELb1EEELb1EEixERS2_@Base 15
 (optional=templinst)_ZNSt8__detail9_Map_baseImSt4pairIKmSt6vectorImSaImEEESaIS6_ENS_10_Select1stESt8equal_toImESt4hashImENS_18_Mod_range_hashingENS_20_Default_ranged_hashENS_20_Prime_rehash_policyENS_17_Hashtable_traitsILb0ELb0ELb1EEELb1EEixERS2_@Base 15
 (optional=templinst)_ZSt13__adjust_heapIN9__gnu_cxx17__normal_iteratorIPmSt6vectorImSaImEEEElmNS0_5__ops15_Iter_comp_iterIPFimmEEEEvT_T0_SD_T1_T2_@Base 15
 (optional=templinst)_ZSt16__insertion_sortIN9__gnu_cxx17__normal_iteratorIPmSt6vectorImSaImEEEENS0_5__ops15_Iter_comp_iterIPFimmEEEEvT_SC_T0_@Base 15
 (optional=templinst)_ZSt16__introsort_loopIN9__gnu_cxx17__normal_iteratorIPmSt6vectorImSaImEEEElNS0_5__ops15_Iter_comp_iterIPFimmEEEEvT_SC_T0_T1_@Base 15
 _ZZNK17cbl_declarative_t10match_fileEmE4pend@Base 15
 __gg___14_linage_counter6@Base 15
 __gg___data_dev_null@Base 15
 __gg___data_dev_stderr@Base 15
 __gg___data_dev_stdin@Base 15
 __gg___data_dev_stdout@Base 15
 __gg___dev_null@Base 15
 __gg___dev_stderr@Base 15
 __gg___dev_stdin@Base 15
 __gg___dev_stdout@Base 15
 __gg___file_status@Base 15
 __gg__abs@Base 15
 __gg__accept@Base 15
 __gg__accept_arg_value@Base 15
 __gg__accept_envar@Base 15
 __gg__acos@Base 15
 __gg__add_fixed_phase1@Base 15
 __gg__add_float_phase1@Base 15
 __gg__addf1_fixed_phase2@Base 15
 __gg__addf1_float_phase2@Base 15
 __gg__addf3@Base 15
 __gg__adjust_dest_size@Base 15
 __gg__allocate@Base 15
 __gg__alphabet_create@Base 15
 __gg__alphabet_states@Base 15
 __gg__alphabet_use@Base 15
 __gg__annuity@Base 15
 __gg__arithmetic_rounds@Base 15
 __gg__arithmetic_rounds_size@Base 15
 __gg__ascii_to_ascii@Base 15
 __gg__ascii_to_ascii_chr@Base 15
 __gg__ascii_to_console@Base 15
 __gg__ascii_to_ebcdic@Base 15
 __gg__ascii_to_ebcdic_chr@Base 15
 __gg__ascii_to_internal@Base 15
 __gg__ascii_to_internal_chr@Base 15
 __gg__ascii_to_internal_field@Base 15
 __gg__ascii_to_internal_str@Base 15
 __gg__asin@Base 15
 __gg__assign_value_from_stack@Base 15
 __gg__atan@Base 15
 __gg__binary_to_string@Base 15
 __gg__binary_to_string_internal@Base 15
 __gg__binary_value_from_field@Base 15
 __gg__binary_value_from_qualified_field@Base 15
 __gg__bitop@Base 15
 __gg__bitwise_op@Base 15
 __gg__byte_length@Base 15
 __gg__call_parameter_count@Base 15
 __gg__call_parameter_lengths@Base 15
 __gg__call_parameter_signature@Base 15
 __gg__char@Base 15
 __gg__check_fatal_exception@Base 15
 __gg__classify@Base 15
 __gg__clear_exception@Base 15
 __gg__clock_gettime@Base 15
 __gg__codeset_figurative_constants@Base 15
 __gg__combined_datetime@Base 15
 __gg__compare@Base 15
 __gg__compare_2@Base 15
 __gg__concat@Base 15
 __gg__console_to_ascii@Base 15
 __gg__console_to_ebcdic@Base 15
 __gg__console_to_internal@Base 15
 __gg__console_to_internal_cm@Base 15
 __gg__copy_as_big_endian@Base 15
 __gg__cos@Base 15
 __gg__cp1140_to_cp1252_values@Base 15
 __gg__cp1252_to_cp1140_values@Base 15
 __gg__cp1252_to_ebcdic_collation@Base 15
 __gg__ct_currency_signs@Base 15
 __gg__currency_sign@Base 15
 __gg__currency_sign_init@Base 15
 __gg__currency_signs@Base 15
 __gg__current_date@Base 15
 __gg__data__file_status@Base 15
 __gg__data_high_values@Base 15
 __gg__data_linage_counter@Base 15
 __gg__data_low_values@Base 15
 __gg__data_nulls@Base 15
 __gg__data_quotes@Base 15
 __gg__data_return_code@Base 15
 __gg__data_space@Base 15
 __gg__data_upsi_0@Base 15
 __gg__data_zeros@Base 15
 __gg__date_of_integer@Base 15
 __gg__date_to_yyyymmdd@Base 15
 __gg__day_of_integer@Base 15
 __gg__day_to_yyyyddd@Base 15
 __gg__deallocate@Base 15
 __gg__decimal_point@Base 15
 __gg__decimal_point_is_comma@Base 15
 __gg__decimal_separator@Base 15
 __gg__default_compute_error@Base 15
 __gg__default_currency_sign@Base 15
 __gg__dirty_to_binary_internal@Base 15
 __gg__dirty_to_binary_source@Base 15
 __gg__dirty_to_float@Base 15
 __gg__display@Base 15
 __gg__display_clean@Base 15
 __gg__display_int128@Base 15
 __gg__display_string@Base 15
 __gg__dividef1_phase2@Base 15
 __gg__dividef23@Base 15
 __gg__dividef45@Base 15
 __gg__double_to_target@Base 15
 __gg__e@Base 15
 __gg__ebcdic_codeset_in_use@Base 15
 __gg__ebcdic_to_ascii@Base 15
 __gg__ebcdic_to_console@Base 15
 __gg__ebcdic_to_cp1252_collation@Base 15
 __gg__entry_location@Base 15
 __gg__exception_code@Base 15
 __gg__exception_file_name@Base 15
 __gg__exception_file_status@Base 15
 __gg__exception_line_number@Base 15
 __gg__exception_paragraph@Base 15
 __gg__exception_pop@Base 15
 __gg__exception_program_id@Base 15
 __gg__exception_push@Base 15
 __gg__exception_section@Base 15
 __gg__exception_source_file@Base 15
 __gg__exception_statement@Base 15
 __gg__exception_table@Base 15
 __gg__exception_table_end@Base 15
 __gg__exit_address@Base 15
 __gg__exp10@Base 15
 __gg__exp@Base 15
 __gg__factorial@Base 15
 __gg__fetch_call_by_value_value@Base 15
 __gg__file_close@Base 15
 __gg__file_delete@Base 15
 __gg__file_init@Base 15
 __gg__file_open@Base 15
 __gg__file_read@Base 15
 __gg__file_reopen@Base 15
 __gg__file_rewrite@Base 15
 __gg__file_sort_ff_input@Base 15
 __gg__file_sort_ff_output@Base 15
 __gg__file_start@Base 15
 __gg__file_stash@Base 15
 __gg__file_status_word@Base 15
 __gg__file_write@Base 15
 __gg__fixed_phase2_assign_to_c@Base 15
 __gg__float128_from_field@Base 15
 __gg__float128_from_int128@Base 15
 __gg__float128_from_location@Base 15
 __gg__float128_from_qualified_field@Base 15
 __gg__float128_to_field@Base 15
 __gg__float128_to_qualified_field@Base 15
 __gg__float32_from_128@Base 15
 __gg__float32_from_64@Base 15
 __gg__float32_from_int128@Base 15
 __gg__float64_from_128@Base 15
 __gg__float64_from_int128@Base 15
 __gg__float_phase2_assign_to_c@Base 15
 __gg__formatted_current_date@Base 15
 __gg__formatted_date@Base 15
 __gg__formatted_datetime@Base 15
 __gg__formatted_time@Base 15
 __gg__fourplet_flags@Base 15
 __gg__fourplet_flags_size@Base 15
 __gg__fprintf_stderr@Base 15
 __gg__fraction_part@Base 15
 __gg__func_exception_file@Base 15
 __gg__func_exception_location@Base 15
 __gg__func_exception_statement@Base 15
 __gg__func_exception_status@Base 15
 __gg__function_handle_from_cobpath@Base 15
 __gg__function_handle_from_literal@Base 15
 __gg__function_handle_from_name@Base 15
 __gg__get_argc@Base 15
 __gg__get_argv@Base 15
 __gg__get_command_line@Base 15
 __gg__get_date_dow@Base 15
 __gg__get_date_hhmmssff@Base 15
 __gg__get_date_yyddd@Base 15
 __gg__get_date_yymmdd@Base 15
 __gg__get_date_yyyymmdd@Base 15
 __gg__get_decimal_point@Base 15
 __gg__get_decimal_separator@Base 15
 __gg__get_default_currency_string@Base 15
 __gg__get_env_name@Base 15
 __gg__get_env_value@Base 15
 __gg__get_figconst_data@Base 15
 __gg__get_file_descriptor@Base 15
 __gg__get_integer_binary_value@Base 15
 __gg__get_yyyyddd@Base 15
 __gg__globals_are_initialized@Base 15
 __gg__handle_error@Base 15
 __gg__hex_of@Base 15
 __gg__high_value_character@Base 15
 __gg__high_values@Base 15
 __gg__highest_algebraic@Base 15
 __gg__init_program_state@Base 15
 __gg__initialize_variable@Base 15
 __gg__initialize_variable_clean@Base 15
 __gg__inspect_format_1@Base 15
 __gg__inspect_format_2@Base 15
 __gg__inspect_format_4@Base 15
 __gg__int128_to_field@Base 15
 __gg__int128_to_qualified_field@Base 15
 __gg__integer@Base 15
 __gg__integer_from_float128@Base 15
 __gg__integer_from_qualified_field@Base 15
 __gg__integer_of_date@Base 15
 __gg__integer_of_day@Base 15
 __gg__integer_of_formatted_date@Base 15
 __gg__integer_part@Base 15
 __gg__internal_codeset_map@Base 15
 __gg__internal_to_ascii@Base 15
 __gg__internal_to_console_cm@Base 15
 __gg__internal_to_console_in_place@Base 15
 __gg__is_canceled@Base 15
 __gg__is_float_infinite@Base 15
 __gg__just_mangle_name@Base 15
 __gg__literaln_alpha_compare@Base 15
 __gg__locale_compare@Base 15
 __gg__locale_date@Base 15
 __gg__locale_time@Base 15
 __gg__locale_time_from_seconds@Base 15
 __gg__log10@Base 15
 __gg__log@Base 15
 __gg__low_value_character@Base 15
 __gg__low_values@Base 15
 __gg__lower_case@Base 15
 __gg__lowest_algebraic@Base 15
 __gg__main_called@Base 15
 __gg__match_exception@Base 15
 __gg__max@Base 15
 __gg__mean@Base 15
 __gg__median@Base 15
 __gg__merge_files@Base 15
 __gg__midrange@Base 15
 __gg__min@Base 15
 __gg__mirror_range@Base 15
 __gg__mod@Base 15
 __gg__module_name@Base 15
 __gg__module_name_pop@Base 15
 __gg__module_name_push@Base 15
 __gg__move@Base 15
 __gg__move_literala@Base 15
 __gg__multiplyf1_phase1@Base 15
 __gg__multiplyf1_phase2@Base 15
 __gg__multiplyf2@Base 15
 __gg__nop@Base 15
 __gg__nulls@Base 15
 __gg__numval@Base 15
 __gg__numval_c@Base 15
 __gg__numval_f@Base 15
 __gg__one_to_one_values@Base 15
 __gg__ord@Base 15
 __gg__ord_max@Base 15
 __gg__ord_min@Base 15
 __gg__parser_set_conditional@Base 15
 __gg__pi@Base 15
 __gg__pop_local_variables@Base 15
 __gg__pop_program_state@Base 15
 __gg__pow@Base 15
 __gg__power_of_ten@Base 15
 __gg__present_value@Base 15
 __gg__process_compute_error@Base 15
 __gg__pseudo_return_bookmark@Base 15
 __gg__pseudo_return_flush@Base 15
 __gg__pseudo_return_pop@Base 15
 __gg__pseudo_return_push@Base 15
 __gg__psz_to_alpha_move@Base 15
 __gg__push_local_variable@Base 15
 __gg__push_program_state@Base 15
 __gg__quote_character@Base 15
 __gg__quotes@Base 15
 __gg__random@Base 15
 __gg__random_next@Base 15
 __gg__range@Base 15
 __gg__raw_to_ascii@Base 15
 __gg__raw_to_ebcdic@Base 15
 __gg__raw_to_internal@Base 15
 __gg__rdigits@Base 15
 __gg__realloc_if_necessary@Base 15
 __gg__rem@Base 15
 __gg__remove_trailing_zeroes@Base 15
 __gg__resize_int_p@Base 15
 __gg__resize_treeplet@Base 15
 __gg__return_code@Base 15
 __gg__reverse@Base 15
 __gg__routine_to_call@Base 15
 __gg__scale_by_power_of_ten_1@Base 15
 __gg__scale_by_power_of_ten_2@Base 15
 __gg__seconds_from_formatted_time@Base 15
 __gg__seconds_past_midnight@Base 15
 __gg__set_arg_num@Base 15
 __gg__set_env_name@Base 15
 __gg__set_env_value@Base 15
 __gg__set_envar@Base 15
 __gg__set_exception_code@Base 15
 __gg__set_exception_environment@Base 15
 __gg__set_exception_file@Base 15
 __gg__set_initial_switch_value@Base 15
 __gg__set_internal_codeset@Base 15
 __gg__set_pointer@Base 15
 __gg__set_program_list@Base 15
 __gg__set_program_name@Base 15
 __gg__set_truncation_mode@Base 15
 __gg__set_user_status@Base 15
 __gg__setop_compare@Base 15
 __gg__sign@Base 15
 __gg__sin@Base 15
 __gg__sleep@Base 15
 __gg__sort_table@Base 15
 __gg__sort_workfile@Base 15
 __gg__space@Base 15
 __gg__spaces@Base 15
 __gg__sqrt@Base 15
 __gg__standard_deviation@Base 15
 __gg__stash_argc_argv@Base 15
 __gg__string@Base 15
 __gg__string_to_alpha_edited@Base 15
 __gg__string_to_alpha_edited_ascii@Base 15
 __gg__string_to_numeric_edited@Base 15
 __gg__substitute@Base 15
 __gg__subtractf1_fixed_phase2@Base 15
 __gg__subtractf1_float_phase2@Base 15
 __gg__subtractf2_fixed_phase1@Base 15
 __gg__subtractf2_float_phase1@Base 15
 __gg__subtractf3@Base 15
 __gg__sum@Base 15
 __gg__tan@Base 15
 __gg__test_date_yyyymmdd@Base 15
 __gg__test_day_yyyyddd@Base 15
 __gg__test_formatted_datetime@Base 15
 __gg__test_numval@Base 15
 __gg__test_numval_c@Base 15
 __gg__test_numval_f@Base 15
 __gg__text_conversion_override@Base 15
 __gg__to_be_canceled@Base 15
 __gg__treeplet_1f@Base 15
 __gg__treeplet_1o@Base 15
 __gg__treeplet_1s@Base 15
 __gg__treeplet_2f@Base 15
 __gg__treeplet_2o@Base 15
 __gg__treeplet_2s@Base 15
 __gg__treeplet_3f@Base 15
 __gg__treeplet_3o@Base 15
 __gg__treeplet_3s@Base 15
 __gg__treeplet_4f@Base 15
 __gg__treeplet_4o@Base 15
 __gg__treeplet_4s@Base 15
 __gg__trim@Base 15
 __gg__unique_prog_id@Base 15
 __gg__unstring@Base 15
 __gg__upper_case@Base 15
 __gg__upsi@Base 15
 __gg__variables_to_init@Base 15
 __gg__variance@Base 15
 __gg__when_compiled@Base 15
 __gg__year_to_yyyy@Base 15
 __gg__zeros@Base 15
 _from_ctype@Base 15
 _to_ctype@Base 15
